target datalayout = "e-m:e-p270:32:32-p271:32:32-p272:64:64-i64:64-i128:128-f80:128-n8:16:32:64-S128"
target triple = "x86_64-pc-linux-gnu"

%struct.H5FL_reg_head_t = type { i8, i32, i32, ptr, i64, ptr }
%struct.H5VL_class_t = type { i32, i32, ptr, i32, i64, ptr, ptr, %struct.H5VL_info_class_t, %struct.H5VL_wrap_class_t, %struct.H5VL_attr_class_t, %struct.H5VL_dataset_class_t, %struct.H5VL_datatype_class_t, %struct.H5VL_file_class_t, %struct.H5VL_group_class_t, %struct.H5VL_link_class_t, %struct.H5VL_object_class_t, %struct.H5VL_introspect_class_t, %struct.H5VL_request_class_t, %struct.H5VL_blob_class_t, %struct.H5VL_token_class_t, ptr }
%struct.H5VL_info_class_t = type { i64, ptr, ptr, ptr, ptr, ptr }
%struct.H5VL_wrap_class_t = type { ptr, ptr, ptr, ptr, ptr }
%struct.H5VL_attr_class_t = type { ptr, ptr, ptr, ptr, ptr, ptr, ptr, ptr }
%struct.H5VL_dataset_class_t = type { ptr, ptr, ptr, ptr, ptr, ptr, ptr, ptr }
%struct.H5VL_datatype_class_t = type { ptr, ptr, ptr, ptr, ptr, ptr }
%struct.H5VL_file_class_t = type { ptr, ptr, ptr, ptr, ptr, ptr }
%struct.H5VL_group_class_t = type { ptr, ptr, ptr, ptr, ptr, ptr }
%struct.H5VL_link_class_t = type { ptr, ptr, ptr, ptr, ptr, ptr }
%struct.H5VL_object_class_t = type { ptr, ptr, ptr, ptr, ptr }
%struct.H5VL_introspect_class_t = type { ptr, ptr, ptr }
%struct.H5VL_request_class_t = type { ptr, ptr, ptr, ptr, ptr, ptr }
%struct.H5VL_blob_class_t = type { ptr, ptr, ptr, ptr }
%struct.H5VL_token_class_t = type { ptr, ptr, ptr }
%struct.H5VL_object_t = type { ptr, ptr, i64 }
%struct.H5VL_t = type { ptr, i64, i64 }
%struct.H5VL_wrap_ctx_t = type { i32, ptr, ptr }

@.str.2 = private unnamed_addr constant [101 x i8] c"generated/home/dtcxzyw/WorkSpace/Projects/compilers/llvm-opt-benchmark/bench/hdf5/hdf5/src/H5VLint.c\00", align 1
@H5E_VOL_g = external global i64, align 8
@H5E_CANTSET_g = external global i64, align 8
@H5E_CANTALLOC_g = external global i64, align 8
@H5E_CANTGET_g = external global i64, align 8
@__func__.H5VL_set_vol_wrapper = private unnamed_addr constant [21 x i8] c"H5VL_set_vol_wrapper\00", align 1
@.str.83 = private unnamed_addr constant [34 x i8] c"can't get VOL object wrap context\00", align 1
@.str.84 = private unnamed_addr constant [51 x i8] c"can't retrieve VOL connector's object wrap context\00", align 1
@H5_H5VL_wrap_ctx_t_reg_free_list = internal global %struct.H5FL_reg_head_t { i8 0, i32 0, i32 0, ptr @.str.108, i64 24, ptr null }, align 8
@.str.85 = private unnamed_addr constant [32 x i8] c"can't allocate VOL wrap context\00", align 1
@.str.86 = private unnamed_addr constant [34 x i8] c"can't set VOL object wrap context\00", align 1

; Function Attrs: nounwind uwtable
define i64 @H5VL_conn_inc_rc(ptr noundef %0) #0 {
  %2 = alloca ptr, align 8
  %3 = alloca i64, align 8
  store ptr %0, ptr %2, align 8
  store i64 -1, ptr %3, align 8
  %4 = load ptr, ptr %2, align 8
  %5 = getelementptr inbounds %struct.H5VL_t, ptr %4, i32 0, i32 1
  %6 = load i64, ptr %5, align 8
  %7 = add nsw i64 %6, 1
  store i64 %7, ptr %5, align 8
  %8 = load ptr, ptr %2, align 8
  %9 = getelementptr inbounds %struct.H5VL_t, ptr %8, i32 0, i32 1
  %10 = load i64, ptr %9, align 8
  store i64 %10, ptr %3, align 8
  %11 = load i64, ptr %3, align 8
  ret i64 %11
}

; Function Attrs: nounwind uwtable
define i32 @H5VL_set_vol_wrapper(ptr noundef %0) #0 {
  %2 = alloca ptr, align 8
  %3 = alloca ptr, align 8
  %4 = alloca i32, align 4
  %5 = alloca i8, align 1
  %6 = alloca ptr, align 8
  store ptr %0, ptr %2, align 8
  store ptr null, ptr %3, align 8
  store i32 0, ptr %4, align 4
  store i8 0, ptr %5, align 1
  %7 = call i32 @H5CX_get_vol_wrap_ctx(ptr noundef %3)
  %8 = icmp slt i32 %7, 0
  br i1 %8, label %9, label %24

9:                                                ; preds = %1
  br label %10

10:                                               ; preds = %9
  br label %11

11:                                               ; preds = %10
  br label %12

12:                                               ; preds = %11
  %13 = load i64, ptr @H5E_VOL_g, align 8
  %14 = load i64, ptr @H5E_CANTGET_g, align 8
  %15 = call i32 (ptr, ptr, i32, i64, i64, ptr, ...) @H5E_printf_stack(ptr noundef @.str.2, ptr noundef @__func__.H5VL_set_vol_wrapper, i32 noundef 2219, i64 noundef %13, i64 noundef %14, ptr noundef @.str.83)
  br label %16

16:                                               ; preds = %12
  store i8 1, ptr %5, align 1
  %17 = load i8, ptr %5, align 1
  %18 = trunc i8 %17 to i1
  %19 = zext i1 %18 to i8
  store i8 %19, ptr %5, align 1
  br label %20

20:                                               ; preds = %16
  br label %21

21:                                               ; preds = %20
  store i32 -1, ptr %4, align 4
  br label %125

22:                                               ; No predecessors!
  br label %23

23:                                               ; preds = %22
  br label %24

24:                                               ; preds = %23, %1
  %25 = load ptr, ptr %3, align 8
  %26 = icmp eq ptr null, %25
  br i1 %26, label %27, label %100

27:                                               ; preds = %24
  store ptr null, ptr %6, align 8
  %28 = load ptr, ptr %2, align 8
  %29 = getelementptr inbounds %struct.H5VL_object_t, ptr %28, i32 0, i32 1
  %30 = load ptr, ptr %29, align 8
  %31 = getelementptr inbounds %struct.H5VL_t, ptr %30, i32 0, i32 0
  %32 = load ptr, ptr %31, align 8
  %33 = getelementptr inbounds %struct.H5VL_class_t, ptr %32, i32 0, i32 8
  %34 = getelementptr inbounds %struct.H5VL_wrap_class_t, ptr %33, i32 0, i32 1
  %35 = load ptr, ptr %34, align 8
  %36 = icmp ne ptr %35, null
  br i1 %36, label %37, label %67

37:                                               ; preds = %27
  %38 = load ptr, ptr %2, align 8
  %39 = getelementptr inbounds %struct.H5VL_object_t, ptr %38, i32 0, i32 1
  %40 = load ptr, ptr %39, align 8
  %41 = getelementptr inbounds %struct.H5VL_t, ptr %40, i32 0, i32 0
  %42 = load ptr, ptr %41, align 8
  %43 = getelementptr inbounds %struct.H5VL_class_t, ptr %42, i32 0, i32 8
  %44 = getelementptr inbounds %struct.H5VL_wrap_class_t, ptr %43, i32 0, i32 1
  %45 = load ptr, ptr %44, align 8
  %46 = load ptr, ptr %2, align 8
  %47 = getelementptr inbounds %struct.H5VL_object_t, ptr %46, i32 0, i32 0
  %48 = load ptr, ptr %47, align 8
  %49 = call i32 %45(ptr noundef %48, ptr noundef %6)
  %50 = icmp slt i32 %49, 0
  br i1 %50, label %51, label %66

51:                                               ; preds = %37
  br label %52

52:                                               ; preds = %51
  br label %53

53:                                               ; preds = %52
  br label %54

54:                                               ; preds = %53
  %55 = load i64, ptr @H5E_VOL_g, align 8
  %56 = load i64, ptr @H5E_CANTGET_g, align 8
  %57 = call i32 (ptr, ptr, i32, i64, i64, ptr, ...) @H5E_printf_stack(ptr noundef @.str.2, ptr noundef @__func__.H5VL_set_vol_wrapper, i32 noundef 2236, i64 noundef %55, i64 noundef %56, ptr noundef @.str.84)
  br label %58

58:                                               ; preds = %54
  store i8 1, ptr %5, align 1
  %59 = load i8, ptr %5, align 1
  %60 = trunc i8 %59 to i1
  %61 = zext i1 %60 to i8
  store i8 %61, ptr %5, align 1
  br label %62

62:                                               ; preds = %58
  br label %63

63:                                               ; preds = %62
  store i32 -1, ptr %4, align 4
  br label %125

64:                                               ; No predecessors!
  br label %65

65:                                               ; preds = %64
  br label %66

66:                                               ; preds = %65, %37
  br label %67

67:                                               ; preds = %66, %27
  %68 = call noalias ptr @H5FL_reg_malloc(ptr noundef @H5_H5VL_wrap_ctx_t_reg_free_list)
  store ptr %68, ptr %3, align 8
  %69 = icmp eq ptr null, %68
  br i1 %69, label %70, label %85

70:                                               ; preds = %67
  br label %71

71:                                               ; preds = %70
  br label %72

72:                                               ; preds = %71
  br label %73

73:                                               ; preds = %72
  %74 = load i64, ptr @H5E_VOL_g, align 8
  %75 = load i64, ptr @H5E_CANTALLOC_g, align 8
  %76 = call i32 (ptr, ptr, i32, i64, i64, ptr, ...) @H5E_printf_stack(ptr noundef @.str.2, ptr noundef @__func__.H5VL_set_vol_wrapper, i32 noundef 2241, i64 noundef %74, i64 noundef %75, ptr noundef @.str.85)
  br label %77

77:                                               ; preds = %73
  store i8 1, ptr %5, align 1
  %78 = load i8, ptr %5, align 1
  %79 = trunc i8 %78 to i1
  %80 = zext i1 %79 to i8
  store i8 %80, ptr %5, align 1
  br label %81

81:                                               ; preds = %77
  br label %82

82:                                               ; preds = %81
  store i32 -1, ptr %4, align 4
  br label %125

83:                                               ; No predecessors!
  br label %84

84:                                               ; preds = %83
  br label %85

85:                                               ; preds = %84, %67
  %86 = load ptr, ptr %2, align 8
  %87 = getelementptr inbounds %struct.H5VL_object_t, ptr %86, i32 0, i32 1
  %88 = load ptr, ptr %87, align 8
  %89 = call i64 @H5VL_conn_inc_rc(ptr noundef %88)
  %90 = load ptr, ptr %3, align 8
  %91 = getelementptr inbounds %struct.H5VL_wrap_ctx_t, ptr %90, i32 0, i32 0
  store i32 1, ptr %91, align 8
  %92 = load ptr, ptr %2, align 8
  %93 = getelementptr inbounds %struct.H5VL_object_t, ptr %92, i32 0, i32 1
  %94 = load ptr, ptr %93, align 8
  %95 = load ptr, ptr %3, align 8
  %96 = getelementptr inbounds %struct.H5VL_wrap_ctx_t, ptr %95, i32 0, i32 1
  store ptr %94, ptr %96, align 8
  %97 = load ptr, ptr %6, align 8
  %98 = load ptr, ptr %3, align 8
  %99 = getelementptr inbounds %struct.H5VL_wrap_ctx_t, ptr %98, i32 0, i32 2
  store ptr %97, ptr %99, align 8
  br label %105

100:                                              ; preds = %24
  %101 = load ptr, ptr %3, align 8
  %102 = getelementptr inbounds %struct.H5VL_wrap_ctx_t, ptr %101, i32 0, i32 0
  %103 = load i32, ptr %102, align 8
  %104 = add i32 %103, 1
  store i32 %104, ptr %102, align 8
  br label %105

105:                                              ; preds = %100, %85
  %106 = load ptr, ptr %3, align 8
  %107 = call i32 @H5CX_set_vol_wrap_ctx(ptr noundef %106)
  %108 = icmp slt i32 %107, 0
  br i1 %108, label %109, label %124

109:                                              ; preds = %105
  br label %110

110:                                              ; preds = %109
  br label %111

111:                                              ; preds = %110
  br label %112

112:                                              ; preds = %111
  %113 = load i64, ptr @H5E_VOL_g, align 8
  %114 = load i64, ptr @H5E_CANTSET_g, align 8
  %115 = call i32 (ptr, ptr, i32, i64, i64, ptr, ...) @H5E_printf_stack(ptr noundef @.str.2, ptr noundef @__func__.H5VL_set_vol_wrapper, i32 noundef 2257, i64 noundef %113, i64 noundef %114, ptr noundef @.str.86)
  br label %116

116:                                              ; preds = %112
  store i8 1, ptr %5, align 1
  %117 = load i8, ptr %5, align 1
  %118 = trunc i8 %117 to i1
  %119 = zext i1 %118 to i8
  store i8 %119, ptr %5, align 1
  br label %120

120:                                              ; preds = %116
  br label %121

121:                                              ; preds = %120
  store i32 -1, ptr %4, align 4
  br label %125

122:                                              ; No predecessors!
  br label %123

123:                                              ; preds = %122
  br label %124

124:                                              ; preds = %123, %105
  br label %125

125:                                              ; preds = %124, %121, %82, %63, %21
  %126 = load i32, ptr %4, align 4
  %127 = icmp slt i32 %126, 0
  br i1 %127, label %128, label %134

128:                                              ; preds = %125
  %129 = load ptr, ptr %3, align 8
  %130 = icmp ne ptr %129, null
  br i1 %130, label %131, label %134

131:                                              ; preds = %128
  %132 = load ptr, ptr %3, align 8
  %133 = call ptr @H5FL_reg_free(ptr noundef @H5_H5VL_wrap_ctx_t_reg_free_list, ptr noundef %132)
  br label %134

134:                                              ; preds = %131, %128, %125
  %135 = load i32, ptr %4, align 4
  ret i32 %135
}