; Function Attrs: nounwind uwtable
define range(i32 -1, 1) i32 @H5VL_set_vol_wrapper(ptr nocapture noundef readonly %0) local_unnamed_addr #0 {
  %2 = alloca ptr, align 8
  %3 = alloca ptr, align 8
  store ptr null, ptr %2, align 8
  %4 = call i32 @H5CX_get_vol_wrap_ctx(ptr noundef nonnull %2) #10
  %5 = icmp slt i32 %4, 0
  br i1 %5, label %6, label %10

6:                                                ; preds = %1
  %7 = load i64, ptr @H5E_VOL_g, align 8
  %8 = load i64, ptr @H5E_CANTGET_g, align 8
  %9 = call i32 (ptr, ptr, i32, i64, i64, ptr, ...) @H5E_printf_stack(ptr noundef nonnull @.str.2, ptr noundef nonnull @__func__.H5VL_set_vol_wrapper, i32 noundef 2219, i64 noundef %7, i64 noundef %8, ptr noundef nonnull @.str.83) #10
  br label %54

10:                                               ; preds = %1
  %11 = load ptr, ptr %2, align 8
  %12 = icmp eq ptr %11, null
  br i1 %12, label %13, label %43

13:                                               ; preds = %10
  store ptr null, ptr %3, align 8
  %14 = getelementptr inbounds i8, ptr %0, i64 8
  %15 = load ptr, ptr %14, align 8
  %16 = load ptr, ptr %15, align 8
  %17 = getelementptr inbounds i8, ptr %16, i64 104
  %18 = load ptr, ptr %17, align 8
  %.not = icmp eq ptr %18, null
  br i1 %.not, label %27, label %19

19:                                               ; preds = %13
  %20 = load ptr, ptr %0, align 8
  %21 = call i32 %18(ptr noundef %20, ptr noundef nonnull %3) #10
  %22 = icmp slt i32 %21, 0
  br i1 %22, label %23, label %27

23:                                               ; preds = %19
  %24 = load i64, ptr @H5E_VOL_g, align 8
  %25 = load i64, ptr @H5E_CANTGET_g, align 8
  %26 = call i32 (ptr, ptr, i32, i64, i64, ptr, ...) @H5E_printf_stack(ptr noundef nonnull @.str.2, ptr noundef nonnull @__func__.H5VL_set_vol_wrapper, i32 noundef 2236, i64 noundef %24, i64 noundef %25, ptr noundef nonnull @.str.84) #10
  br label %54

27:                                               ; preds = %19, %13
  %28 = call noalias ptr @H5FL_reg_malloc(ptr noundef nonnull @H5_H5VL_wrap_ctx_t_reg_free_list) #10
  store ptr %28, ptr %2, align 8
  %29 = icmp eq ptr %28, null
  br i1 %29, label %30, label %34

30:                                               ; preds = %27
  %31 = load i64, ptr @H5E_VOL_g, align 8
  %32 = load i64, ptr @H5E_CANTALLOC_g, align 8
  %33 = call i32 (ptr, ptr, i32, i64, i64, ptr, ...) @H5E_printf_stack(ptr noundef nonnull @.str.2, ptr noundef nonnull @__func__.H5VL_set_vol_wrapper, i32 noundef 2241, i64 noundef %31, i64 noundef %32, ptr noundef nonnull @.str.85) #10
  br label %54

34:                                               ; preds = %27
  %35 = load ptr, ptr %14, align 8
  %36 = getelementptr inbounds i8, ptr %35, i64 8
  %37 = load i64, ptr %36, align 8
  %38 = add nsw i64 %37, 1
  store i64 %38, ptr %36, align 8
  store i32 1, ptr %28, align 8
  %39 = load ptr, ptr %14, align 8
  %40 = getelementptr inbounds i8, ptr %28, i64 8
  store ptr %39, ptr %40, align 8
  %41 = load ptr, ptr %3, align 8
  %42 = getelementptr inbounds i8, ptr %28, i64 16
  store ptr %41, ptr %42, align 8
  br label %46

43:                                               ; preds = %10
  %44 = load i32, ptr %11, align 8
  %45 = add i32 %44, 1
  store i32 %45, ptr %11, align 8
  %.pre = load ptr, ptr %2, align 8
  br label %46

46:                                               ; preds = %43, %34
  %47 = phi ptr [ %.pre, %43 ], [ %28, %34 ]
  %48 = call i32 @H5CX_set_vol_wrap_ctx(ptr noundef %47) #10
  %49 = icmp slt i32 %48, 0
  br i1 %49, label %50, label %.thread

50:                                               ; preds = %46
  %51 = load i64, ptr @H5E_VOL_g, align 8
  %52 = load i64, ptr @H5E_CANTSET_g, align 8
  %53 = call i32 (ptr, ptr, i32, i64, i64, ptr, ...) @H5E_printf_stack(ptr noundef nonnull @.str.2, ptr noundef nonnull @__func__.H5VL_set_vol_wrapper, i32 noundef 2257, i64 noundef %51, i64 noundef %52, ptr noundef nonnull @.str.86) #10
  br label %54

54:                                               ; preds = %50, %30, %23, %6
  %55 = load ptr, ptr %2, align 8
  %.not17 = icmp eq ptr %55, null
  br i1 %.not17, label %.thread, label %56

56:                                               ; preds = %54
  %57 = call ptr @H5FL_reg_free(ptr noundef nonnull @H5_H5VL_wrap_ctx_t_reg_free_list, ptr noundef nonnull %55) #10
  br label %.thread

.thread:                                          ; preds = %46, %56, %54
  %.016 = phi i32 [ -1, %56 ], [ -1, %54 ], [ 0, %46 ]
  ret i32 %.016
}